target datalayout = "e-m:e-p270:32:32-p271:32:32-p272:64:64-i64:64-i128:128-f80:128-n8:16:32:64-S128"
target triple = "x86_64-pc-linux-gnu"

%struct.edata_avail_t = type { %struct.ph_s }
%struct.ph_s = type { ptr, i64 }
%struct.phn_link_s = type { ptr, ptr, ptr }

; Function Attrs: alwaysinline nounwind uwtable
define internal ptr @phn_link_get(ptr noundef %0, i64 noundef %1) #1 {
  %3 = alloca ptr, align 8
  %4 = alloca i64, align 8
  store ptr %0, ptr %3, align 8, !tbaa !4
  store i64 %1, ptr %4, align 8, !tbaa !14
  %5 = load ptr, ptr %3, align 8, !tbaa !4
  %6 = ptrtoint ptr %5 to i64
  %7 = load i64, ptr %4, align 8, !tbaa !14
  %8 = add i64 %6, %7
  %9 = inttoptr i64 %8 to ptr
  ret ptr %9
}

; Function Attrs: alwaysinline nounwind uwtable
define internal ptr @phn_next_get(ptr noundef %0, i64 noundef %1) #1 {
  %3 = alloca ptr, align 8
  %4 = alloca i64, align 8
  store ptr %0, ptr %3, align 8, !tbaa !4
  store i64 %1, ptr %4, align 8, !tbaa !14
  %5 = load ptr, ptr %3, align 8, !tbaa !4
  %6 = load i64, ptr %4, align 8, !tbaa !14
  %7 = call ptr @phn_link_get(ptr noundef %5, i64 noundef %6)
  %8 = getelementptr inbounds nuw %struct.phn_link_s, ptr %7, i32 0, i32 1
  %9 = load ptr, ptr %8, align 8, !tbaa !25
  ret ptr %9
}

; Function Attrs: alwaysinline nounwind uwtable
define internal ptr @ph_any(ptr noundef %0, i64 noundef %1) #1 {
  %3 = alloca ptr, align 8
  %4 = alloca ptr, align 8
  %5 = alloca i64, align 8
  %6 = alloca ptr, align 8
  %7 = alloca i32, align 4
  store ptr %0, ptr %4, align 8, !tbaa !8
  store i64 %1, ptr %5, align 8, !tbaa !14
  %8 = load ptr, ptr %4, align 8, !tbaa !8
  %9 = getelementptr inbounds nuw %struct.ph_s, ptr %8, i32 0, i32 0
  %10 = load ptr, ptr %9, align 8, !tbaa !10
  %11 = icmp eq ptr %10, null
  br i1 %11, label %12, label %13

12:                                               ; preds = %2
  store ptr null, ptr %3, align 8
  br label %28

13:                                               ; preds = %2
  call void @llvm.lifetime.start.p0(i64 8, ptr %6) #5
  %14 = load ptr, ptr %4, align 8, !tbaa !8
  %15 = getelementptr inbounds nuw %struct.ph_s, ptr %14, i32 0, i32 0
  %16 = load ptr, ptr %15, align 8, !tbaa !10
  %17 = load i64, ptr %5, align 8, !tbaa !14
  %18 = call ptr @phn_next_get(ptr noundef %16, i64 noundef %17)
  store ptr %18, ptr %6, align 8, !tbaa !4
  %19 = load ptr, ptr %6, align 8, !tbaa !4
  %20 = icmp ne ptr %19, null
  br i1 %20, label %21, label %23

21:                                               ; preds = %13
  %22 = load ptr, ptr %6, align 8, !tbaa !4
  store ptr %22, ptr %3, align 8
  store i32 1, ptr %7, align 4
  br label %27

23:                                               ; preds = %13
  %24 = load ptr, ptr %4, align 8, !tbaa !8
  %25 = getelementptr inbounds nuw %struct.ph_s, ptr %24, i32 0, i32 0
  %26 = load ptr, ptr %25, align 8, !tbaa !10
  store ptr %26, ptr %3, align 8
  store i32 1, ptr %7, align 4
  br label %27

27:                                               ; preds = %23, %21
  call void @llvm.lifetime.end.p0(i64 8, ptr %6) #5
  br label %28

28:                                               ; preds = %27, %12
  %29 = load ptr, ptr %3, align 8
  ret ptr %29
}

; Function Attrs: nounwind uwtable
define hidden ptr @je_edata_avail_any(ptr noundef %0) #0 {
  %2 = alloca ptr, align 8
  store ptr %0, ptr %2, align 8, !tbaa !4
  %3 = load ptr, ptr %2, align 8, !tbaa !4
  %4 = getelementptr inbounds nuw %struct.edata_avail_t, ptr %3, i32 0, i32 0
  %5 = call ptr @ph_any(ptr noundef %4, i64 noundef 40)
  ret ptr %5
}

; Function Attrs: nounwind uwtable
define hidden ptr @je_edata_avail_remove_any(ptr noundef %0) #0 {
  %2 = alloca ptr, align 8
  %3 = alloca ptr, align 8
  store ptr %0, ptr %2, align 8, !tbaa !4
  call void @llvm.lifetime.start.p0(i64 8, ptr %3) #5
  %4 = load ptr, ptr %2, align 8, !tbaa !4
  %5 = call ptr @je_edata_avail_any(ptr noundef %4)
  store ptr %5, ptr %3, align 8, !tbaa !15
  %6 = load ptr, ptr %3, align 8, !tbaa !15
  %7 = icmp ne ptr %6, null
  br i1 %7, label %8, label %11

8:                                                ; preds = %1
  %9 = load ptr, ptr %2, align 8, !tbaa !4
  %10 = load ptr, ptr %3, align 8, !tbaa !15
  call void @je_edata_avail_remove(ptr noundef %9, ptr noundef %10)
  br label %11

11:                                               ; preds = %8, %1
  %12 = load ptr, ptr %3, align 8, !tbaa !15
  call void @llvm.lifetime.end.p0(i64 8, ptr %3) #5
  ret ptr %12
}