; Function Attrs: nofree norecurse nosync nounwind memory(readwrite, inaccessiblemem: none) uwtable
define hidden noundef ptr @je_edata_avail_remove_any(ptr noundef captures(none) %0) local_unnamed_addr #2 {
  %2 = load ptr, ptr %0, align 8, !tbaa !4
  %3 = icmp eq ptr %2, null
  br i1 %3, label %je_edata_avail_any.exit, label %select.unfold

select.unfold:                                    ; preds = %1
  %4 = ptrtoint ptr %2 to i64
  %5 = add i64 %4, 40
  %6 = inttoptr i64 %5 to ptr
  %7 = getelementptr inbounds nuw i8, ptr %6, i64 8
  %8 = load ptr, ptr %7, align 8, !tbaa !11
  %.not.i.i = icmp eq ptr %8, null
  %spec.select = select i1 %.not.i.i, ptr %2, ptr %8
  tail call void @je_edata_avail_remove(ptr noundef nonnull %0, ptr noundef nonnull %spec.select)
  br label %je_edata_avail_any.exit

je_edata_avail_any.exit:                          ; preds = %1, %select.unfold
  %.0.i.i8 = phi ptr [ %spec.select, %select.unfold ], [ null, %1 ]
  ret ptr %.0.i.i8
}